	.file	"main.c"
	.text
	.globl	global_init_var
	.data
	.align 4
	.type	global_init_var, @object
	.size	global_init_var, 4
global_init_var:
	.long	84

	.comm	globale_uninit_var,4,4
	
	.text
	.globl	func1
	.type	func1, @function
func1:
.LFB0:
	.cfi_startproc
	pushl	%ebp
	.cfi_def_cfa_offset 8
	.cfi_offset 5, -8
	movl	%esp, %ebp
	.cfi_def_cfa_register 5
	call	__x86.get_pc_thunk.ax
	addl	$_GLOBAL_OFFSET_TABLE_, %eax
	nop
	popl	%ebp
	.cfi_restore 5
	.cfi_def_cfa 4, 4
	ret
	.cfi_endproc
.LFE0:
	.size	func1, .-func1
	.globl	main
	.type	main, @function
main:
.LFB1:
	.cfi_startproc
	pushl	%ebp
	.cfi_def_cfa_offset 8
	.cfi_offset 5, -8
	movl	%esp, %ebp
	.cfi_def_cfa_register 5
	subl	$16, %esp
	call	__x86.get_pc_thunk.ax
	addl	$_GLOBAL_OFFSET_TABLE_, %eax
	movl	$1, -8(%ebp)
	movl	static_var2.1418@GOTOFF(%eax), %edx
	movl	static_var.1417@GOTOFF(%eax), %eax
	addl	%edx, %eax
	leal	1(%eax), %edx
	movl	-4(%ebp), %eax
	addl	%edx, %eax
	pushl	%eax
	call	func1
	addl	$4, %esp
	movl	$0, %eax
	leave
	.cfi_restore 5
	.cfi_def_cfa 4, 4
	ret
	.cfi_endproc
.LFE1:
	.size	main, .-main
	.local	static_var2.1418
	.comm	static_var2.1418,4,4
	.data
	.align 4
	.type	static_var.1417, @object
	.size	static_var.1417, 4
static_var.1417:
	.long	85
	.section	.text.__x86.get_pc_thunk.ax,"axG",@progbits,__x86.get_pc_thunk.ax,comdat
	.globl	__x86.get_pc_thunk.ax
	.hidden	__x86.get_pc_thunk.ax
	.type	__x86.get_pc_thunk.ax, @function
__x86.get_pc_thunk.ax:
.LFB2:
	.cfi_startproc
	movl	(%esp), %eax
	ret
	.cfi_endproc
.LFE2:
	.ident	"GCC: (Ubuntu 7.5.0-3ubuntu1~18.04) 7.5.0"
	.section	.note.GNU-stack,"",@progbits
